; Function Attrs: mustprogress null_pointer_is_valid sspstrong uwtable
define void @_ZN13ApplyLineEdit15onSubmitContentEv(ptr noundef align 8 dereferenceable_or_null(80) %0) #0 align 2 personality ptr @__gxx_personality_v0 {
  %2 = alloca %class.QString, align 8
  call void @llvm.lifetime.start.p0(i64 24, ptr nonnull %2) #14
  call void @_ZNK9QLineEdit4textEv(ptr dead_on_unwind nonnull writable sret(%class.QString) align 8 %2, ptr noundef align 8 dereferenceable_or_null(40) %0)
  %3 = invoke noundef zeroext i1 @_ZN13ApplyLineEdit11isValidTextER7QStringb(ptr noundef align 8 dereferenceable_or_null(80) %0, ptr noundef nonnull align 8 dereferenceable(24) %2, i1 noundef zeroext false)
          to label %4 unwind label %5

4:                                                ; preds = %1
  br i1 %3, label %11, label %15

5:                                                ; preds = %14, %11, %1
  %6 = landingpad { ptr, i32 }
          cleanup
  %7 = load ptr, ptr %2, align 8
  %.not.i.i.i = icmp eq ptr %7, null
  br i1 %.not.i.i.i, label %_ZN7QStringD2Ev.exit, label %_ZN17QArrayDataPointerIDsE5derefEv.exit.i.i

_ZN17QArrayDataPointerIDsE5derefEv.exit.i.i:      ; preds = %5
  %8 = atomicrmw sub ptr %7, i32 1 seq_cst, align 4
  %.not.i.i = icmp eq i32 %8, 1
  br i1 %.not.i.i, label %9, label %_ZN7QStringD2Ev.exit

9:                                                ; preds = %_ZN17QArrayDataPointerIDsE5derefEv.exit.i.i
  %10 = load ptr, ptr %2, align 8
  call void @_ZN10QArrayData10deallocateEPS_xx(ptr noundef %10, i64 noundef 2, i64 noundef 8) #14
  br label %_ZN7QStringD2Ev.exit

_ZN7QStringD2Ev.exit:                             ; preds = %5, %_ZN17QArrayDataPointerIDsE5derefEv.exit.i.i, %9
  call void @llvm.lifetime.end.p0(i64 24, ptr nonnull %2) #14
  resume { ptr, i32 } %6

11:                                               ; preds = %4
  %12 = getelementptr inbounds nuw i8, ptr %0, i64 72
  %13 = load ptr, ptr %12, align 8
  invoke void @_ZN7QWidget10setEnabledEb(ptr noundef align 8 dereferenceable_or_null(40) %13, i1 noundef zeroext false)
          to label %14 unwind label %5

14:                                               ; preds = %11
  invoke void @_ZN13ApplyLineEdit11textAppliedEv(ptr noundef align 8 dereferenceable_or_null(80) %0)
          to label %15 unwind label %5

15:                                               ; preds = %14, %4
  %16 = load ptr, ptr %2, align 8
  %.not.i.i.i2 = icmp eq ptr %16, null
  br i1 %.not.i.i.i2, label %_ZN7QStringD2Ev.exit5, label %_ZN17QArrayDataPointerIDsE5derefEv.exit.i.i3

_ZN17QArrayDataPointerIDsE5derefEv.exit.i.i3:     ; preds = %15
  %17 = atomicrmw sub ptr %16, i32 1 seq_cst, align 4
  %.not.i.i4 = icmp eq i32 %17, 1
  br i1 %.not.i.i4, label %18, label %_ZN7QStringD2Ev.exit5

18:                                               ; preds = %_ZN17QArrayDataPointerIDsE5derefEv.exit.i.i3
  %19 = load ptr, ptr %2, align 8
  call void @_ZN10QArrayData10deallocateEPS_xx(ptr noundef %19, i64 noundef 2, i64 noundef 8) #14
  br label %_ZN7QStringD2Ev.exit5

_ZN7QStringD2Ev.exit5:                            ; preds = %15, %_ZN17QArrayDataPointerIDsE5derefEv.exit.i.i3, %18
  call void @llvm.lifetime.end.p0(i64 24, ptr nonnull %2) #14
  ret void
}